target datalayout = "e-m:e-p270:32:32-p271:32:32-p272:64:64-i64:64-i128:128-f80:128-n8:16:32:64-S128"
target triple = "x86_64-pc-linux-gnu"

%struct.SwsFilterDescriptor = type { ptr, ptr, i32, ptr, ptr }
%struct.SwsSlice = type { i32, i32, i32, i32, i32, i32, [4 x %struct.SwsPlane] }
%struct.SwsPlane = type { i32, i32, i32, ptr, ptr }

; Function Attrs: nounwind uwtable
define internal i32 @no_chr_scale(ptr noundef %0, ptr noundef %1, i32 noundef %2, i32 noundef %3) #0 {
  %5 = alloca ptr, align 8
  %6 = alloca ptr, align 8
  %7 = alloca i32, align 4
  %8 = alloca i32, align 4
  store ptr %0, ptr %5, align 8, !tbaa !33
  store ptr %1, ptr %6, align 8, !tbaa !4
  store i32 %2, ptr %7, align 4, !tbaa !26
  store i32 %3, ptr %8, align 4, !tbaa !26
  %9 = load i32, ptr %7, align 4, !tbaa !26
  %10 = load i32, ptr %8, align 4, !tbaa !26
  %11 = add nsw i32 %9, %10
  %12 = load ptr, ptr %6, align 8, !tbaa !4
  %13 = getelementptr inbounds nuw %struct.SwsFilterDescriptor, ptr %12, i32 0, i32 1
  %14 = load ptr, ptr %13, align 8, !tbaa !24
  %15 = getelementptr inbounds nuw %struct.SwsSlice, ptr %14, i32 0, i32 6
  %16 = getelementptr inbounds [4 x %struct.SwsPlane], ptr %15, i64 0, i64 1
  %17 = getelementptr inbounds nuw %struct.SwsPlane, ptr %16, i32 0, i32 0
  %18 = load i32, ptr %17, align 8, !tbaa !88
  %19 = sub nsw i32 %11, %18
  %20 = load ptr, ptr %6, align 8, !tbaa !4
  %21 = getelementptr inbounds nuw %struct.SwsFilterDescriptor, ptr %20, i32 0, i32 1
  %22 = load ptr, ptr %21, align 8, !tbaa !24
  %23 = getelementptr inbounds nuw %struct.SwsSlice, ptr %22, i32 0, i32 6
  %24 = getelementptr inbounds [4 x %struct.SwsPlane], ptr %23, i64 0, i64 1
  %25 = getelementptr inbounds nuw %struct.SwsPlane, ptr %24, i32 0, i32 1
  store i32 %19, ptr %25, align 4, !tbaa !36
  %26 = load ptr, ptr %6, align 8, !tbaa !4
  %27 = getelementptr inbounds nuw %struct.SwsFilterDescriptor, ptr %26, i32 0, i32 1
  %28 = load ptr, ptr %27, align 8, !tbaa !24
  %29 = getelementptr inbounds nuw %struct.SwsSlice, ptr %28, i32 0, i32 6
  %30 = getelementptr inbounds [4 x %struct.SwsPlane], ptr %29, i64 0, i64 1
  %31 = getelementptr inbounds nuw %struct.SwsPlane, ptr %30, i32 0, i32 0
  %32 = load i32, ptr %31, align 8, !tbaa !88
  %33 = load ptr, ptr %6, align 8, !tbaa !4
  %34 = getelementptr inbounds nuw %struct.SwsFilterDescriptor, ptr %33, i32 0, i32 1
  %35 = load ptr, ptr %34, align 8, !tbaa !24
  %36 = getelementptr inbounds nuw %struct.SwsSlice, ptr %35, i32 0, i32 6
  %37 = getelementptr inbounds [4 x %struct.SwsPlane], ptr %36, i64 0, i64 1
  %38 = getelementptr inbounds nuw %struct.SwsPlane, ptr %37, i32 0, i32 2
  store i32 %32, ptr %38, align 8, !tbaa !40
  %39 = load i32, ptr %7, align 4, !tbaa !26
  %40 = load i32, ptr %8, align 4, !tbaa !26
  %41 = add nsw i32 %39, %40
  %42 = load ptr, ptr %6, align 8, !tbaa !4
  %43 = getelementptr inbounds nuw %struct.SwsFilterDescriptor, ptr %42, i32 0, i32 1
  %44 = load ptr, ptr %43, align 8, !tbaa !24
  %45 = getelementptr inbounds nuw %struct.SwsSlice, ptr %44, i32 0, i32 6
  %46 = getelementptr inbounds [4 x %struct.SwsPlane], ptr %45, i64 0, i64 2
  %47 = getelementptr inbounds nuw %struct.SwsPlane, ptr %46, i32 0, i32 0
  %48 = load i32, ptr %47, align 8, !tbaa !88
  %49 = sub nsw i32 %41, %48
  %50 = load ptr, ptr %6, align 8, !tbaa !4
  %51 = getelementptr inbounds nuw %struct.SwsFilterDescriptor, ptr %50, i32 0, i32 1
  %52 = load ptr, ptr %51, align 8, !tbaa !24
  %53 = getelementptr inbounds nuw %struct.SwsSlice, ptr %52, i32 0, i32 6
  %54 = getelementptr inbounds [4 x %struct.SwsPlane], ptr %53, i64 0, i64 2
  %55 = getelementptr inbounds nuw %struct.SwsPlane, ptr %54, i32 0, i32 1
  store i32 %49, ptr %55, align 4, !tbaa !36
  %56 = load ptr, ptr %6, align 8, !tbaa !4
  %57 = getelementptr inbounds nuw %struct.SwsFilterDescriptor, ptr %56, i32 0, i32 1
  %58 = load ptr, ptr %57, align 8, !tbaa !24
  %59 = getelementptr inbounds nuw %struct.SwsSlice, ptr %58, i32 0, i32 6
  %60 = getelementptr inbounds [4 x %struct.SwsPlane], ptr %59, i64 0, i64 2
  %61 = getelementptr inbounds nuw %struct.SwsPlane, ptr %60, i32 0, i32 0
  %62 = load i32, ptr %61, align 8, !tbaa !88
  %63 = load ptr, ptr %6, align 8, !tbaa !4
  %64 = getelementptr inbounds nuw %struct.SwsFilterDescriptor, ptr %63, i32 0, i32 1
  %65 = load ptr, ptr %64, align 8, !tbaa !24
  %66 = getelementptr inbounds nuw %struct.SwsSlice, ptr %65, i32 0, i32 6
  %67 = getelementptr inbounds [4 x %struct.SwsPlane], ptr %66, i64 0, i64 2
  %68 = getelementptr inbounds nuw %struct.SwsPlane, ptr %67, i32 0, i32 2
  store i32 %62, ptr %68, align 8, !tbaa !40
  ret i32 0
}