; Function Attrs: mustprogress nofree norecurse nosync nounwind willreturn memory(readwrite, inaccessiblemem: none) uwtable
define internal noundef i32 @no_chr_scale(ptr readnone captures(none) %0, ptr noundef readonly captures(none) %1, i32 noundef %2, i32 noundef %3) #4 {
  %5 = add nsw i32 %3, %2
  %6 = getelementptr inbounds nuw i8, ptr %1, i64 8
  %7 = load ptr, ptr %6, align 8, !tbaa !22
  %8 = getelementptr inbounds nuw i8, ptr %7, i64 56
  %9 = load i32, ptr %8, align 8, !tbaa !74
  %10 = sub nsw i32 %5, %9
  %11 = getelementptr inbounds nuw i8, ptr %7, i64 60
  store i32 %10, ptr %11, align 4, !tbaa !25
  %12 = getelementptr inbounds nuw i8, ptr %7, i64 64
  store i32 %9, ptr %12, align 8, !tbaa !29
  %13 = getelementptr inbounds nuw i8, ptr %7, i64 88
  %14 = load i32, ptr %13, align 8, !tbaa !74
  %15 = sub nsw i32 %5, %14
  %16 = getelementptr inbounds nuw i8, ptr %7, i64 92
  store i32 %15, ptr %16, align 4, !tbaa !25
  %17 = getelementptr inbounds nuw i8, ptr %7, i64 96
  store i32 %14, ptr %17, align 8, !tbaa !29
  ret i32 0
}